#include <math.h>
#include <stdio.h>
#include <stdlib.h>
#include <string.h>

void main()
{
	char a[50],b[50];
	int i,j,s,k;
	scanf("%s",a);
	scanf("%s",b);
	for(i=0;a[i]!='\0';i++)
	{
		j=i;
	}
	for(i=0;b[i]!='\0';i++)
	{
		if(b[i]==a[0])
		{
			s=j;
			for(k=0;k<j;k++)
			{
				if(b[i+k]==a[k])
					s=s-1;
			}		
			if(s==0)
			{
				printf("%d\n",i);
				break;
			}
			
		}
	}
}